target datalayout = "e-m:e-p270:32:32-p271:32:32-p272:64:64-i64:64-i128:128-f80:128-n8:16:32:64-S128"
target triple = "x86_64-pc-linux-gnu"

%struct.__jmp_buf_tag = type { [8 x i64], i32, %struct.__sigset_t }
%struct.__sigset_t = type { [16 x i64] }

@_ZN6cvtestL9tsJmpMarkE = internal global [1 x %struct.__jmp_buf_tag] zeroinitializer, align 16

; Function Attrs: mustprogress nounwind uwtable
define internal void @_ZN6cvtestL13signalHandlerEi(i32 noundef %0) #7 {
  %2 = alloca i32, align 4
  %3 = alloca i32, align 4
  store i32 %0, ptr %2, align 4, !tbaa !8
  call void @llvm.lifetime.start.p0(i64 4, ptr %3) #3
  store i32 -4, ptr %3, align 4, !tbaa !52
  %4 = load i32, ptr %2, align 4, !tbaa !8
  switch i32 %4, label %8 [
    i32 8, label %5
    i32 11, label %6
    i32 7, label %6
    i32 4, label %7
  ]

5:                                                ; preds = %1
  store i32 -6, ptr %3, align 4, !tbaa !52
  br label %8

6:                                                ; preds = %1, %1
  store i32 -6, ptr %3, align 4, !tbaa !52
  br label %8

7:                                                ; preds = %1
  store i32 -4, ptr %3, align 4, !tbaa !52
  br label %8

8:                                                ; preds = %7, %1, %6, %5
  %9 = load i32, ptr %3, align 4, !tbaa !52
  call void @longjmp(ptr noundef @_ZN6cvtestL9tsJmpMarkE, i32 noundef %9) #25
  unreachable
}