; Function Attrs: mustprogress noreturn nounwind uwtable
define internal void @_ZN6cvtestL13signalHandlerEi(i32 noundef %0) #27 {
  %switch.tableidx = add i32 %0, -7
  %2 = icmp ult i32 %switch.tableidx, 5
  br i1 %2, label %switch.lookup, label %4

switch.lookup:                                    ; preds = %1
  %3 = zext nneg i32 %switch.tableidx to i64
  %switch.gep = getelementptr inbounds nuw [5 x i32], ptr @switch.table._ZN6cvtestL13signalHandlerEi, i64 0, i64 %3
  %switch.load = load i32, ptr %switch.gep, align 4
  br label %4

4:                                                ; preds = %switch.lookup, %1
  %.0 = phi i32 [ -4, %1 ], [ %switch.load, %switch.lookup ]
  tail call void @longjmp(ptr noundef nonnull @_ZN6cvtestL9tsJmpMarkE, i32 noundef %.0) #44
  unreachable
}